(dp0
S'living-room'
p1
(lp2
Vcouch
p3
aVchairs
p4
aVbig ol TV
p5
aVbouncy chair
p6
aVrecliner
p7
aVtest item
p8
aVottoman
p9
asVTest title
p10
(lp11
V1
p12
aV2
p13
aV3
p14
aV4
p15
asS'items'
p16
(lp17
Vtest1
p18
aVtest2
p19
aVtest3
p20
asVStudy
p21
(lp22
Vdesk
p23
aVchairs
p24
aVbottlecaps
p25
aVrock
p26
aVblanket
p27
aVmonitor
p28
asS'list_title'
p29
(lp30
VTest title
p31
asS'kitchen'
p32
(lp33
S'stove'
p34
aS'oven'
p35
aS'spices'
p36
aVspatula
p37
as.